###############################################################################
#                                                                             #
# IAR C/C++ Compiler V8.10.3.10338/W32 for 8051         18/May/2021  15:35:40 #
# Copyright 2004-2011 IAR Systems AB.                                         #
#                                                                             #
#    Core               =  plain                                              #
#    Code model         =  banked                                             #
#    Data model         =  large                                              #
#    Calling convention =  xdata reentrant                                    #
#    Constant location  =  data_rom                                           #
#    Dptr setup         =  1,16                                               #
#    Source file        =  C:\Texas Instruments\ZStack-CC2530-2.3.0-1.4.0\Zig #
#                          bee\Projects\zstack\Samples\GenericApp\Source\Coor #
#                          dinator.c                                          #
#    Command line       =  -f "C:\Texas Instruments\ZStack-CC2530-2.3.0-1.4.0 #
#                          \Zigbee\Projects\zstack\Samples\GenericApp\CC2530D #
#                          B\..\..\..\Tools\CC2530DB\f8wCoord.cfg"            #
#                          (-DCPU32MHZ -DROOT=__near_func                     #
#                          -DMAC_CFG_APP_PENDING_QUEUE=TRUE                   #
#                          -DZDO_COORDINATOR -DRTR_NWK -DBLINK_LEDS) -f       #
#                          "C:\Texas Instruments\ZStack-CC2530-2.3.0-1.4.0\Zi #
#                          gbee\Projects\zstack\Samples\GenericApp\CC2530DB\. #
#                          .\..\..\Tools\CC2530DB\f8wConfig.cfg" (-DSECURE=0  #
#                          -DZG_SECURE_DYNAMIC=0 -DREFLECTOR                  #
#                          -DDEFAULT_CHANLIST=0x00000800                      #
#                          -DZDAPP_CONFIG_PAN_ID=0x2002                       #
#                          -DNWK_START_DELAY=100 -DEXTENDED_JOINING_RANDOM_MA #
#                          SK=0x007F -DBEACON_REQUEST_DELAY=100               #
#                          -DBEACON_REQ_DELAY_MASK=0x00FF                     #
#                          -DROUTE_EXPIRY_TIME=30 -DAPSC_ACK_WAIT_DURATION_PO #
#                          LLED=3000 -DNWK_INDIRECT_MSG_TIMEOUT=7             #
#                          -DMAX_RREQ_ENTRIES=8 -DAPSC_MAX_FRAME_RETRIES=3    #
#                          -DNWK_MAX_DATA_RETRIES=2                           #
#                          -DMAX_POLL_FAILURE_RETRIES=2 -DMAX_BCAST=9         #
#                          -DAPS_MAX_GROUPS=16 -DMAX_RTG_ENTRIES=40           #
#                          -DNWK_MAX_BINDING_ENTRIES=4                        #
#                          -DMAX_BINDING_CLUSTER_IDS=4 "-DDEFAULT_KEY={0x01,  #
#                          0x03, 0x05, 0x07, 0x09, 0x0B, 0x0D, 0x0F, 0x00,    #
#                          0x02, 0x04, 0x06, 0x08, 0x0A, 0x0C, 0x0D}"         #
#                          -DMAC_MAX_FRAME_SIZE=116 "-DCONST=const __code"    #
#                          -DGENERIC=__generic -DRFD_RCVC_ALWAYS_ON=FALSE     #
#                          -DPOLL_RATE=1000 -DQUEUED_POLL_RATE=100            #
#                          -DRESPONSE_POLL_RATE=100) -DREJOIN_POLL_RATE=440   #
#                          "C:\Texas Instruments\ZStack-CC2530-2.3.0-1.4.0\Zi #
#                          gbee\Projects\zstack\Samples\GenericApp\Source\Coo #
#                          rdinator.c" -D ZTOOL_P1 -D MT_TASK -D MT_SYS_FUNC  #
#                          -D MT_ZDO_FUNC -D LCD_SUPPORTED=DEBUG -lC          #
#                          "C:\Texas Instruments\ZStack-CC2530-2.3.0-1.4.0\Zi #
#                          gbee\Projects\zstack\Samples\GenericApp\CC2530DB\C #
#                          oordinatorEB\List\" -lA "C:\Texas                  #
#                          Instruments\ZStack-CC2530-2.3.0-1.4.0\Zigbee\Proje #
#                          cts\zstack\Samples\GenericApp\CC2530DB\Coordinator #
#                          EB\List\" --diag_suppress Pe001,Pa010 -o           #
#                          "C:\Texas Instruments\ZStack-CC2530-2.3.0-1.4.0\Zi #
#                          gbee\Projects\zstack\Samples\GenericApp\CC2530DB\C #
#                          oordinatorEB\Obj\" -e --debug --core=plain         #
#                          --dptr=16,1 --data_model=large                     #
#                          --code_model=banked --calling_convention=xdata_ree #
#                          ntrant --place_constants=data_rom                  #
#                          --nr_virtual_regs 16 -I "C:\Texas                  #
#                          Instruments\ZStack-CC2530-2.3.0-1.4.0\Zigbee\Proje #
#                          cts\zstack\Samples\GenericApp\CC2530DB\" -I        #
#                          "C:\Texas Instruments\ZStack-CC2530-2.3.0-1.4.0\Zi #
#                          gbee\Projects\zstack\Samples\GenericApp\CC2530DB\. #
#                          .\SOURCE\" -I "C:\Texas Instruments\ZStack-CC2530- #
#                          2.3.0-1.4.0\Zigbee\Projects\zstack\Samples\Generic #
#                          App\CC2530DB\..\..\..\ZMAIN\TI2530DB\" -I          #
#                          "C:\Texas Instruments\ZStack-CC2530-2.3.0-1.4.0\Zi #
#                          gbee\Projects\zstack\Samples\GenericApp\CC2530DB\. #
#                          .\..\..\..\..\COMPONENTS\MT\" -I "C:\Texas         #
#                          Instruments\ZStack-CC2530-2.3.0-1.4.0\Zigbee\Proje #
#                          cts\zstack\Samples\GenericApp\CC2530DB\..\..\..\.. #
#                          \..\COMPONENTS\HAL\INCLUDE\" -I "C:\Texas          #
#                          Instruments\ZStack-CC2530-2.3.0-1.4.0\Zigbee\Proje #
#                          cts\zstack\Samples\GenericApp\CC2530DB\..\..\..\.. #
#                          \..\COMPONENTS\HAL\TARGET\CC2530EB\" -I "C:\Texas  #
#                          Instruments\ZStack-CC2530-2.3.0-1.4.0\Zigbee\Proje #
#                          cts\zstack\Samples\GenericApp\CC2530DB\..\..\..\.. #
#                          \..\COMPONENTS\OSAL\MCU\CCSOC\" -I "C:\Texas       #
#                          Instruments\ZStack-CC2530-2.3.0-1.4.0\Zigbee\Proje #
#                          cts\zstack\Samples\GenericApp\CC2530DB\..\..\..\.. #
#                          \..\COMPONENTS\OSAL\INCLUDE\" -I "C:\Texas         #
#                          Instruments\ZStack-CC2530-2.3.0-1.4.0\Zigbee\Proje #
#                          cts\zstack\Samples\GenericApp\CC2530DB\..\..\..\.. #
#                          \..\COMPONENTS\STACK\AF\" -I "C:\Texas             #
#                          Instruments\ZStack-CC2530-2.3.0-1.4.0\Zigbee\Proje #
#                          cts\zstack\Samples\GenericApp\CC2530DB\..\..\..\.. #
#                          \..\COMPONENTS\STACK\NWK\" -I "C:\Texas            #
#                          Instruments\ZStack-CC2530-2.3.0-1.4.0\Zigbee\Proje #
#                          cts\zstack\Samples\GenericApp\CC2530DB\..\..\..\.. #
#                          \..\COMPONENTS\STACK\SEC\" -I "C:\Texas            #
#                          Instruments\ZStack-CC2530-2.3.0-1.4.0\Zigbee\Proje #
#                          cts\zstack\Samples\GenericApp\CC2530DB\..\..\..\.. #
#                          \..\COMPONENTS\STACK\SAPI\" -I "C:\Texas           #
#                          Instruments\ZStack-CC2530-2.3.0-1.4.0\Zigbee\Proje #
#                          cts\zstack\Samples\GenericApp\CC2530DB\..\..\..\.. #
#                          \..\COMPONENTS\STACK\SYS\" -I "C:\Texas            #
#                          Instruments\ZStack-CC2530-2.3.0-1.4.0\Zigbee\Proje #
#                          cts\zstack\Samples\GenericApp\CC2530DB\..\..\..\.. #
#                          \..\COMPONENTS\STACK\ZDO\" -I "C:\Texas            #
#                          Instruments\ZStack-CC2530-2.3.0-1.4.0\Zigbee\Proje #
#                          cts\zstack\Samples\GenericApp\CC2530DB\..\..\..\.. #
#                          \..\COMPONENTS\ZMAC\F8W\" -I "C:\Texas             #
#                          Instruments\ZStack-CC2530-2.3.0-1.4.0\Zigbee\Proje #
#                          cts\zstack\Samples\GenericApp\CC2530DB\..\..\..\.. #
#                          \..\COMPONENTS\ZMAC\" -I "C:\Texas                 #
#                          Instruments\ZStack-CC2530-2.3.0-1.4.0\Zigbee\Proje #
#                          cts\zstack\Samples\GenericApp\CC2530DB\..\..\..\.. #
#                          \..\COMPONENTS\SERVICES\SADDR\" -I "C:\Texas       #
#                          Instruments\ZStack-CC2530-2.3.0-1.4.0\Zigbee\Proje #
#                          cts\zstack\Samples\GenericApp\CC2530DB\..\..\..\.. #
#                          \..\COMPONENTS\SERVICES\SDATA\" -I "C:\Texas       #
#                          Instruments\ZStack-CC2530-2.3.0-1.4.0\Zigbee\Proje #
#                          cts\zstack\Samples\GenericApp\CC2530DB\..\..\..\.. #
#                          \..\COMPONENTS\MAC\INCLUDE\" -I "C:\Texas          #
#                          Instruments\ZStack-CC2530-2.3.0-1.4.0\Zigbee\Proje #
#                          cts\zstack\Samples\GenericApp\CC2530DB\..\..\..\.. #
#                          \..\COMPONENTS\MAC\HIGH_LEVEL\" -I "C:\Texas       #
#                          Instruments\ZStack-CC2530-2.3.0-1.4.0\Zigbee\Proje #
#                          cts\zstack\Samples\GenericApp\CC2530DB\..\..\..\.. #
#                          \..\COMPONENTS\MAC\LOW_LEVEL\srf04\" -I "C:\Texas  #
#                          Instruments\ZStack-CC2530-2.3.0-1.4.0\Zigbee\Proje #
#                          cts\zstack\Samples\GenericApp\CC2530DB\..\..\..\.. #
#                          \..\COMPONENTS\MAC\LOW_LEVEL\srf04\SINGLE_CHIP\"   #
#                          -Ohz --require_prototypes                          #
#    List file          =  C:\Texas Instruments\ZStack-CC2530-2.3.0-1.4.0\Zig #
#                          bee\Projects\zstack\Samples\GenericApp\CC2530DB\Co #
#                          ordinatorEB\List\Coordinator.lst                   #
#    Object file        =  C:\Texas Instruments\ZStack-CC2530-2.3.0-1.4.0\Zig #
#                          bee\Projects\zstack\Samples\GenericApp\CC2530DB\Co #
#                          ordinatorEB\Obj\Coordinator.r51                    #
#                                                                             #
#                                                                             #
###############################################################################

C:\Texas Instruments\ZStack-CC2530-2.3.0-1.4.0\Zigbee\Projects\zstack\Samples\GenericApp\Source\Coordinator.c
      1          /*>>>>>>>>>>>>>>>>>>>>>>>>>>>>>>>>>>>>>>>>>>>>>>>>>>>>>>>>>>>>>>>>>>>>>>>>>>>
      2          * 文件名  ： Coordinator
      3          * 作者    ： ZigBee
      4          * 版本    ： V0.0.1
      5          * 时间    ： 2021/5/18
      6          * 描述    ： 协调器文件
      7          ********************************************************************
      8          * 副本
      9          *
     10          *>>>>>>>>>>>>>>>>>>>>>>>>>>>>>>>>>>>>>>>>>>>>>>>>>>>>>>>>>>>>>>>>>>>>>>>>>>>*/
     11          /* 头文件 ----------------------------------------------------------------*/
     12          #include "OSAL.h"
     13          #include "AF.h"
     14          #include "ZDApp.h"
     15          #include "ZDObject.h"
     16          #include "ZDProfile.h"
     17          #include <string.h>
     18          #include "Coordinator.h"
     19          #include "DebugTrace.h"
     20          #if !defined( WIN32 )
     21          #include "OnBoard.h"
     22          #endif
     23          #include "hal_lcd.h"
     24          #include "hal_led.h"
     25          #include "hal_key.h"
     26          #include "hal_uart.h"
     27          /* 宏定义 ----------------------------------------------------------------*/
     28          /* 结构体或枚举 ----------------------------------------------------------*/
     29          /* 内部函数声明-----------------------------------------------------------*/
     30          
     31          /* 函数 ------------------------------------------------------------------*/
     32          
     33          
     34          //跟协议栈里面数据的定义格式保持一致

   \                                 In  segment XDATA_ROM_C, align 1
     35          const cId_t GenericApp_ClusterList[GENERICAPP_MAX_CLUSTERS] = 
   \                     GenericApp_ClusterList:
   \   000000   0100         DW 1
     36          {
     37              GENERICAPP_CLUSTERID
     38          };
     39          
     40          //用来描述一个ZigBee结点

   \                                 In  segment XDATA_ROM_C, align 1
     41          const SimpleDescriptionFormat_t GenericApp_SimpleDesc =
   \                     GenericApp_SimpleDesc:
   \   000000   0A           DB 10
   \   000001   040F         DW 3844
   \   000003   0100         DW 1
   \   000005   00           DB 0
   \   000006   01           DB 1
   \   000007   ....         DW GenericApp_ClusterList
   \   000009   00           DB 0
   \   00000A   0000         DW 0H
     42          {
     43              GENERICAPP_ENDPOINT,
     44              GENERICAPP_PROFID,
     45              GENERICAPP_DEVICEID,
     46              GENERICAPP_DEVICE_VERSION,
     47              GENERICAPP_FLAGS,
     48              GENERICAPP_MAX_CLUSTERS,
     49              (cId_t *)GenericApp_ClusterList,
     50              0,
     51              (cId_t *)NULL
     52          };
     53          
     54          

   \                                 In  segment XDATA_Z, align 1, keep-with-next
     55          endPointDesc_t GenericApp_epDesc;  /*节点描述符GenericApp_epDesc，
   \                     GenericApp_epDesc:
   \   000000                DS 6
   \   000006                REQUIRE __INIT_XDATA_Z
     56                                               在ZigBee协议栈中新定义的类型一般以_t结尾*/

   \                                 In  segment XDATA_Z, align 1, keep-with-next
     57          byte GenericApp_TaskID;            //任务优先级GenericApp_TaskID
   \                     GenericApp_TaskID:
   \   000000                DS 1
   \   000001                REQUIRE __INIT_XDATA_Z

   \                                 In  segment XDATA_Z, align 1, keep-with-next
     58          byte GenericApp_TransID;           //数据发送序列号GenericApp_TransID
   \                     GenericApp_TransID:
   \   000000                DS 1
   \   000001                REQUIRE __INIT_XDATA_Z
     59          //unsigned char uartbuf[128];        //定义uartbuf
     60          
     61          void GenericApp_MessageMSGCB ( afIncomingMSGPacket_t *pckt );  //消息处理函数
     62          void GenericApp_SendTheMessage ( void );                   //数据发送函数
     63          //static void rxCB( uint8 port,uint8 event );                //回调函数
     64          
     65          /*~~~~~~~~~~~~~~~~~~~~~~~~~~~~~~~~~~~~~~~~~~~~~~~~~~~~~~~~~~~~~~~~~~
     66          * 函数名  ： GenericApp_Init
     67          * 参数    ： byte task_id
     68          * 返回    ： void
     69          * 作者    ： ZigBee
     70          * 时间    ： 2021/5/18
     71          * 描述    ： 任务初始化函数
     72          ~~~~~~~~~~~~~~~~~~~~~~~~~~~~~~~~~~~~~~~~~~~~~~~~~~~~~~~~~~~~~~~~~~*/

   \                                 In  segment BANKED_CODE, align 1, keep-with-next
     73          void GenericApp_Init( byte task_id )
   \                     GenericApp_Init:
     74          {
   \   000000   74F7         MOV     A,#-0x9
   \   000002   12....       LCALL   ?BANKED_ENTER_XDATA
   \   000005                ; Saved register size: 9
   \   000005                ; Auto size: 29
   \   000005   74E3         MOV     A,#-0x1d
   \   000007   12....       LCALL   ?ALLOC_XSTACK8
   \   00000A   E9           MOV     A,R1
     75              halUARTCfg_t uartConfig;
     76              GenericApp_TaskID               = task_id;  //初始化任务优先级
   \   00000B   90....       MOV     DPTR,#GenericApp_TaskID
   \   00000E   F0           MOVX    @DPTR,A
     77              GenericApp_TransID              = 0;       //发送数据包序号初始化为0
   \   00000F   90....       MOV     DPTR,#GenericApp_TransID
   \   000012   E4           CLR     A
   \   000013   F0           MOVX    @DPTR,A
     78              GenericApp_epDesc.endPoint      = GENERICAPP_ENDPOINT;
   \   000014   90....       MOV     DPTR,#GenericApp_epDesc
   \   000017   740A         MOV     A,#0xa
   \   000019   F0           MOVX    @DPTR,A
     79              GenericApp_epDesc.task_id       = &GenericApp_TaskID;
   \   00001A   A3           INC     DPTR
   \   00001B   74..         MOV     A,#GenericApp_TaskID & 0xff
   \   00001D   F0           MOVX    @DPTR,A
   \   00001E   A3           INC     DPTR
   \   00001F   74..         MOV     A,#(GenericApp_TaskID >> 8) & 0xff
   \   000021   F0           MOVX    @DPTR,A
     80              GenericApp_epDesc.simpleDesc    = 
     81                  (SimpleDescriptionFormat_t *)&GenericApp_SimpleDesc;
   \   000022   A3           INC     DPTR
   \   000023   74..         MOV     A,#GenericApp_SimpleDesc & 0xff
   \   000025   F0           MOVX    @DPTR,A
   \   000026   A3           INC     DPTR
   \   000027   74..         MOV     A,#(GenericApp_SimpleDesc >> 8) & 0xff
   \   000029   F0           MOVX    @DPTR,A
     82              GenericApp_epDesc.latencyReq    = noLatencyReqs;
   \   00002A   A3           INC     DPTR
   \   00002B   E4           CLR     A
   \   00002C   F0           MOVX    @DPTR,A
     83              afRegister ( &GenericApp_epDesc );  //使用afRegister函数将节点描述符进行注册
   \   00002D                ; Setup parameters for call to function afRegister
   \   00002D   7A..         MOV     R2,#GenericApp_epDesc & 0xff
   \   00002F   7B..         MOV     R3,#(GenericApp_epDesc >> 8) & 0xff
   \   000031   12....       LCALL   ??afRegister?relay
     84              uartConfig.configured           = TRUE;
   \   000034   85..82       MOV     DPL,?XSP + 0
   \   000037   85..83       MOV     DPH,?XSP + 1
   \   00003A   7401         MOV     A,#0x1
   \   00003C   F0           MOVX    @DPTR,A
     85              uartConfig.baudRate             = HAL_UART_BR_115200;  //波特率
   \   00003D   12....       LCALL   ?XSTACK_DISP0_8
   \   000040   7404         MOV     A,#0x4
   \   000042   F0           MOVX    @DPTR,A
     86              uartConfig.flowControl          = FALSE;
   \   000043   7402         MOV     A,#0x2
   \   000045   12....       LCALL   ?XSTACK_DISP0_8
   \   000048   E4           CLR     A
   \   000049   F0           MOVX    @DPTR,A
     87              uartConfig.callBackFunc         = NULL;   //回调函数设置为NULL
   \   00004A   741B         MOV     A,#0x1b
   \   00004C   12....       LCALL   ?XSTACK_DISP0_8
   \   00004F   E4           CLR     A
   \   000050   F0           MOVX    @DPTR,A
   \   000051   A3           INC     DPTR
   \   000052   F0           MOVX    @DPTR,A
     88              HalUARTOpen (0, &uartConfig);      //对串口初始化
   \   000053                ; Setup parameters for call to function HalUARTOpen
   \   000053   85..82       MOV     DPL,?XSP + 0
   \   000056   85..83       MOV     DPH,?XSP + 1
   \   000059   AA82         MOV     R2,DPL
   \   00005B   AB83         MOV     R3,DPH
   \   00005D   F9           MOV     R1,A
   \   00005E   12....       LCALL   ??HalUARTOpen?relay
     89          }
   \   000061   741D         MOV     A,#0x1d
   \   000063   12....       LCALL   ?DEALLOC_XSTACK8
   \   000066   7F01         MOV     R7,#0x1
   \   000068   02....       LJMP    ?BANKED_LEAVE_XDATA
     90          
     91          /*~~~~~~~~~~~~~~~~~~~~~~~~~~~~~~~~~~~~~~~~~~~~~~~~~~~~~~~~~~~~~~~~~~
     92          * 函数名  ： rxCB
     93          * 参数    ： uint8 port,uint8 event
     94          * 返回    ： void
     95          * 作者    ： linhongpeng
     96          * 时间    ： 2021/5/18
     97          * 描述    ： 回调函数
     98          ~~~~~~~~~~~~~~~~~~~~~~~~~~~~~~~~~~~~~~~~~~~~~~~~~~~~~~~~~~~~~~~~~~*/
     99          /*
    100          static void rxCB(uint8 port,uint8 event)
    101          {
    102              HalUARTRead(0,uartbuf,16);
    103              if(osal_memcmp(uartbuf,"www.wlwmaker.com",16))
    104              {
    105                  HalUARTWrite(0,uartbuf,16);
    106              }
    107          }
    108          */
    109          /*~~~~~~~~~~~~~~~~~~~~~~~~~~~~~~~~~~~~~~~~~~~~~~~~~~~~~~~~~~~~~~~~~~
    110          * 函数名  ： GenericApp_ProcessEvent
    111          * 参数    ： byte task_id, UINT16 events
    112          * 返回    ： UINT16
    113          * 作者    ： linhongpeng
    114          * 时间    ： 2021/5/18
    115          * 描述    ： 消息处理函数
    116          ~~~~~~~~~~~~~~~~~~~~~~~~~~~~~~~~~~~~~~~~~~~~~~~~~~~~~~~~~~~~~~~~~~*/

   \                                 In  segment BANKED_CODE, align 1, keep-with-next
    117          UINT16 GenericApp_ProcessEvent ( byte task_id, UINT16 events )
   \                     GenericApp_ProcessEvent:
    118          {
   \   000000   74F4         MOV     A,#-0xc
   \   000002   12....       LCALL   ?BANKED_ENTER_XDATA
   \   000005                ; Saved register size: 12
   \   000005                ; Auto size: 0
   \   000005   8A..         MOV     ?V0 + 0,R2
   \   000007   8B..         MOV     ?V0 + 1,R3
    119              afIncomingMSGPacket_t *MSGpkt;       //定义一个指向接收消息结构体的指针
    120              if ( events & SYS_EVENT_MSG )
   \   000009   EB           MOV     A,R3
   \   00000A   5480         ANL     A,#0x80
   \   00000C   6036         JZ      ??GenericApp_ProcessEvent_0
    121              {
    122                  MSGpkt = (afIncomingMSGPacket_t *)osal_msg_receive(GenericApp_TaskID );
   \   00000E                ; Setup parameters for call to function osal_msg_receive
   \   00000E   8017         SJMP    ??GenericApp_ProcessEvent_1
    123                  while( MSGpkt )
    124                  {
    125                      switch ( MSGpkt->hdr.event )
   \                     ??GenericApp_ProcessEvent_2:
   \   000010   8E82         MOV     DPL,R6
   \   000012   8F83         MOV     DPH,R7
   \   000014   E0           MOVX    A,@DPTR
   \   000015   641A         XRL     A,#0x1a
   \   000017   7007         JNZ     ??GenericApp_ProcessEvent_3
    126                      {
    127                      case AF_INCOMING_MSG_CMD:
    128                          GenericApp_MessageMSGCB( MSGpkt );  //唯一需要修改的部分
   \   000019                ; Setup parameters for call to function GenericApp_MessageMSGCB
   \   000019   EE           MOV     A,R6
   \   00001A   FA           MOV     R2,A
   \   00001B   EF           MOV     A,R7
   \   00001C   FB           MOV     R3,A
   \   00001D   12....       LCALL   ??GenericApp_MessageMSGCB?relay
    129                          break;
    130                      default:
    131                          break;
    132                      }
    133                      osal_msg_deallocate( (uint8 *)MSGpkt );
   \                     ??GenericApp_ProcessEvent_3:
   \   000020                ; Setup parameters for call to function osal_msg_deallocate
   \   000020   EE           MOV     A,R6
   \   000021   FA           MOV     R2,A
   \   000022   EF           MOV     A,R7
   \   000023   FB           MOV     R3,A
   \   000024   12....       LCALL   ??osal_msg_deallocate?relay
    134                      MSGpkt = (afIncomingMSGPacket_t *)osal_msg_receive
    135                          ( GenericApp_TaskID );
   \   000027                ; Setup parameters for call to function osal_msg_receive
   \                     ??GenericApp_ProcessEvent_1:
   \   000027   90....       MOV     DPTR,#GenericApp_TaskID
   \   00002A   E0           MOVX    A,@DPTR
   \   00002B   F9           MOV     R1,A
   \   00002C   12....       LCALL   ??osal_msg_receive?relay
   \   00002F   8A..         MOV     ?V0 + 2,R2
   \   000031   8B..         MOV     ?V0 + 3,R3
   \   000033   AE..         MOV     R6,?V0 + 2
   \   000035   AF..         MOV     R7,?V0 + 3
    136                  }
   \   000037   EE           MOV     A,R6
   \   000038   4F           ORL     A,R7
   \   000039   70D5         JNZ     ??GenericApp_ProcessEvent_2
    137                  return (events ^ SYS_EVENT_MSG);
   \   00003B   AA..         MOV     R2,?V0 + 0
   \   00003D   E5..         MOV     A,?V0 + 1
   \   00003F   6480         XRL     A,#0x80
   \   000041   FB           MOV     R3,A
   \   000042   8004         SJMP    ??GenericApp_ProcessEvent_4
    138              }
    139              return 0;
   \                     ??GenericApp_ProcessEvent_0:
   \   000044   7A00         MOV     R2,#0x0
   \   000046   7B00         MOV     R3,#0x0
   \                     ??GenericApp_ProcessEvent_4:
   \   000048   7F04         MOV     R7,#0x4
   \   00004A   02....       LJMP    ?BANKED_LEAVE_XDATA
    140          }
    141          
    142          
    143          
    144          

   \                                 In  segment BANKED_CODE, align 1, keep-with-next
    145          void GenericApp_MessageMSGCB( afIncomingMSGPacket_t *pkt )
   \                     GenericApp_MessageMSGCB:
    146          {
   \   000000   74F5         MOV     A,#-0xb
   \   000002   12....       LCALL   ?BANKED_ENTER_XDATA
   \   000005                ; Saved register size: 11
   \   000005                ; Auto size: 10
   \   000005   74F6         MOV     A,#-0xa
   \   000007   12....       LCALL   ?ALLOC_XSTACK8
    147              unsigned char buffer[10];
    148              switch ( pkt->clusterId )
   \   00000A   8A82         MOV     DPL,R2
   \   00000C   8B83         MOV     DPH,R3
   \   00000E   A3           INC     DPTR
   \   00000F   A3           INC     DPTR
   \   000010   A3           INC     DPTR
   \   000011   A3           INC     DPTR
   \   000012   E0           MOVX    A,@DPTR
   \   000013   6401         XRL     A,#0x1
   \   000015   7002         JNZ     ??GenericApp_MessageMSGCB_0
   \   000017   A3           INC     DPTR
   \   000018   E0           MOVX    A,@DPTR
   \                     ??GenericApp_MessageMSGCB_0:
   \   000019   7041         JNZ     ??GenericApp_MessageMSGCB_1
    149              {
    150              case GENERICAPP_CLUSTERID:
    151                  osal_memcpy(buffer,pkt->cmd.Data,10);  //将收到的数据拷贝到缓冲区buffer中
   \   00001B                ; Setup parameters for call to function osal_memcpy
   \   00001B   EA           MOV     A,R2
   \   00001C   2421         ADD     A,#0x21
   \   00001E   F582         MOV     DPL,A
   \   000020   EB           MOV     A,R3
   \   000021   3400         ADDC    A,#0x0
   \   000023   F583         MOV     DPH,A
   \   000025   E0           MOVX    A,@DPTR
   \   000026   F5..         MOV     ?V0 + 0,A
   \   000028   A3           INC     DPTR
   \   000029   E0           MOVX    A,@DPTR
   \   00002A   F5..         MOV     ?V0 + 1,A
   \   00002C   75..00       MOV     ?V0 + 2,#0x0
   \   00002F   78..         MOV     R0,#?V0 + 0
   \   000031   12....       LCALL   ?PUSH_XSTACK_I_THREE
   \   000034   7C0A         MOV     R4,#0xa
   \   000036   7D00         MOV     R5,#0x0
   \   000038   7403         MOV     A,#0x3
   \   00003A   12....       LCALL   ?XSTACK_DISP0_8
   \   00003D   AA82         MOV     R2,DPL
   \   00003F   AB83         MOV     R3,DPH
   \   000041   12....       LCALL   ??osal_memcpy?relay
   \   000044   7403         MOV     A,#0x3
   \   000046   12....       LCALL   ?DEALLOC_XSTACK8
    152                  HalUARTWrite(0,buffer,10);
   \   000049                ; Setup parameters for call to function HalUARTWrite
   \   000049   7C0A         MOV     R4,#0xa
   \   00004B   7D00         MOV     R5,#0x0
   \   00004D   85..82       MOV     DPL,?XSP + 0
   \   000050   85..83       MOV     DPH,?XSP + 1
   \   000053   AA82         MOV     R2,DPL
   \   000055   AB83         MOV     R3,DPH
   \   000057   7900         MOV     R1,#0x0
   \   000059   12....       LCALL   ??HalUARTWrite?relay
    153                  break;
    154                /*  if((buffer[0] == 'L') || (buffer[1] == 'E') || (buffer[2] == 'D'))
    155                  {
    156                      HalLedBlink(HAL_LED_2,0,50,500);
    157                  }
    158                  else
    159                  {
    160                      HalLedSet(HAL_LED_2,HAL_LED_MODE_ON);
    161                  }
    162                  break;
    163                  */
    164              }
    165          }
   \                     ??GenericApp_MessageMSGCB_1:
   \   00005C   740A         MOV     A,#0xa
   \   00005E   12....       LCALL   ?DEALLOC_XSTACK8
   \   000061   7F03         MOV     R7,#0x3
   \   000063   02....       LJMP    ?BANKED_LEAVE_XDATA

   \                                 In  segment BANK_RELAYS, align 1
   \                     ??GenericApp_Init?relay:
   \   000000   12....       LCALL   ?BDISPATCH
   \   000003   ......       DC24    GenericApp_Init

   \                                 In  segment BANK_RELAYS, align 1
   \                     ??GenericApp_ProcessEvent?relay:
   \   000000   12....       LCALL   ?BDISPATCH
   \   000003   ......       DC24    GenericApp_ProcessEvent

   \                                 In  segment BANK_RELAYS, align 1
   \                     ??GenericApp_MessageMSGCB?relay:
   \   000000   12....       LCALL   ?BDISPATCH
   \   000003   ......       DC24    GenericApp_MessageMSGCB

   Maximum stack usage in bytes:

     Function                     ISTACK PSTACK XSTACK
     --------                     ------ ------ ------
     GenericApp_Init                  0      0     38
       -> afRegister                  0      0     76
       -> HalUARTOpen                 0      0     76
     GenericApp_MessageMSGCB          0      0     36
       -> osal_memcpy                 0      0     48
       -> HalUARTWrite                0      0     42
     GenericApp_ProcessEvent          0      0     12
       -> osal_msg_receive            0      0     24
       -> GenericApp_MessageMSGCB     0      0     24
       -> osal_msg_deallocate         0      0     24
       -> osal_msg_receive            0      0     24


   Segment part sizes:

     Function/Label                  Bytes
     --------------                  -----
     GenericApp_ClusterList             2
     GenericApp_SimpleDesc             12
     GenericApp_epDesc                  6
     GenericApp_TaskID                  1
     GenericApp_TransID                 1
     GenericApp_Init                  107
     GenericApp_ProcessEvent           77
     GenericApp_MessageMSGCB          102
     ??GenericApp_Init?relay            6
     ??GenericApp_ProcessEvent?relay    6
     ??GenericApp_MessageMSGCB?relay    6

 
 286 bytes in segment BANKED_CODE
  18 bytes in segment BANK_RELAYS
  14 bytes in segment XDATA_ROM_C
   8 bytes in segment XDATA_Z
 
 304 bytes of CODE  memory
  14 bytes of CONST memory
   8 bytes of XDATA memory

Errors: none
Warnings: none
